target datalayout = "e-m:e-p270:32:32-p271:32:32-p272:64:64-i64:64-i128:128-f80:128-n8:16:32:64-S128"
target triple = "x86_64-pc-linux-gnu"

%struct.PortalData = type { ptr, ptr, ptr, ptr, ptr, i32, i32, i32, ptr, i32, %struct.QueryCompletion, ptr, ptr, ptr, ptr, i32, i32, i32, i8, i8, ptr, ptr, ptr, ptr, ptr, ptr, ptr, i8, i8, i64, i64, i8 }
%struct.QueryCompletion = type { i32, i64 }
%struct.TupleDescData = type { i32, i32, i32, i32, ptr, [0 x %struct.CompactAttribute] }
%struct.CompactAttribute = type { i32, i16, i8, i8, i8, i8, i8, i8, i8 }

@.str.1 = private unnamed_addr constant [9 x i8] c"pquery.c\00", align 1
@.str.2 = private unnamed_addr constant [60 x i8] c"bind message has %d result formats but query has %d columns\00", align 1
@__func__.PortalSetResultFormat = private unnamed_addr constant [22 x i8] c"PortalSetResultFormat\00", align 1

; Function Attrs: nounwind uwtable
define dso_local void @PortalSetResultFormat(ptr noundef %0, i32 noundef %1, ptr noundef %2) #0 {
  %4 = alloca ptr, align 8
  %5 = alloca i32, align 4
  %6 = alloca ptr, align 8
  %7 = alloca i32, align 4
  %8 = alloca i32, align 4
  %9 = alloca i32, align 4
  %10 = alloca i16, align 2
  store ptr %0, ptr %4, align 8
  store i32 %1, ptr %5, align 4
  store ptr %2, ptr %6, align 8
  call void @llvm.lifetime.start.p0(i64 4, ptr %7) #10
  call void @llvm.lifetime.start.p0(i64 4, ptr %8) #10
  %11 = load ptr, ptr %4, align 8
  %12 = getelementptr inbounds nuw %struct.PortalData, ptr %11, i32 0, i32 21
  %13 = load ptr, ptr %12, align 8
  %14 = icmp eq ptr %13, null
  br i1 %14, label %15, label %16

15:                                               ; preds = %3
  store i32 1, ptr %9, align 4
  br label %100

16:                                               ; preds = %3
  %17 = load ptr, ptr %4, align 8
  %18 = getelementptr inbounds nuw %struct.PortalData, ptr %17, i32 0, i32 21
  %19 = load ptr, ptr %18, align 8
  %20 = getelementptr inbounds nuw %struct.TupleDescData, ptr %19, i32 0, i32 0
  %21 = load i32, ptr %20, align 8
  store i32 %21, ptr %7, align 4
  %22 = load ptr, ptr %4, align 8
  %23 = getelementptr inbounds nuw %struct.PortalData, ptr %22, i32 0, i32 2
  %24 = load ptr, ptr %23, align 8
  %25 = load i32, ptr %7, align 4
  %26 = sext i32 %25 to i64
  %27 = mul i64 %26, 2
  %28 = call ptr @MemoryContextAlloc(ptr noundef %24, i64 noundef %27)
  %29 = load ptr, ptr %4, align 8
  %30 = getelementptr inbounds nuw %struct.PortalData, ptr %29, i32 0, i32 22
  store ptr %28, ptr %30, align 8
  %31 = load i32, ptr %5, align 4
  %32 = icmp sgt i32 %31, 1
  br i1 %32, label %33, label %59

33:                                               ; preds = %16
  %34 = load i32, ptr %5, align 4
  %35 = load i32, ptr %7, align 4
  %36 = icmp ne i32 %34, %35
  br i1 %36, label %37, label %51

37:                                               ; preds = %33
  br label %38

38:                                               ; preds = %37
  br i1 true, label %39, label %41

39:                                               ; preds = %38
  %40 = call zeroext i1 @errstart_cold(i32 noundef 21, ptr noundef null) #11
  br i1 %40, label %43, label %48

41:                                               ; preds = %38
  %42 = call zeroext i1 @errstart(i32 noundef 21, ptr noundef null)
  br i1 %42, label %43, label %48

43:                                               ; preds = %41, %39
  %44 = call i32 @errcode(i32 noundef 16908800)
  %45 = load i32, ptr %5, align 4
  %46 = load i32, ptr %7, align 4
  %47 = call i32 (ptr, ...) @errmsg(ptr noundef @.str.2, i32 noundef %45, i32 noundef %46)
  call void @errfinish(ptr noundef @.str.1, i32 noundef 642, ptr noundef @__func__.PortalSetResultFormat)
  br label %48

48:                                               ; preds = %43, %41, %39
  unreachable

49:                                               ; No predecessors!
  br label %50

50:                                               ; preds = %49
  br label %51

51:                                               ; preds = %50, %33
  %52 = load ptr, ptr %4, align 8
  %53 = getelementptr inbounds nuw %struct.PortalData, ptr %52, i32 0, i32 22
  %54 = load ptr, ptr %53, align 8
  %55 = load ptr, ptr %6, align 8
  %56 = load i32, ptr %7, align 4
  %57 = sext i32 %56 to i64
  %58 = mul i64 %57, 2
  call void @llvm.memcpy.p0.p0.i64(ptr align 2 %54, ptr align 2 %55, i64 %58, i1 false)
  br label %99

59:                                               ; preds = %16
  %60 = load i32, ptr %5, align 4
  %61 = icmp sgt i32 %60, 0
  br i1 %61, label %62, label %82

62:                                               ; preds = %59
  call void @llvm.lifetime.start.p0(i64 2, ptr %10) #10
  %63 = load ptr, ptr %6, align 8
  %64 = getelementptr inbounds i16, ptr %63, i64 0
  %65 = load i16, ptr %64, align 2
  store i16 %65, ptr %10, align 2
  store i32 0, ptr %8, align 4
  br label %66

66:                                               ; preds = %78, %62
  %67 = load i32, ptr %8, align 4
  %68 = load i32, ptr %7, align 4
  %69 = icmp slt i32 %67, %68
  br i1 %69, label %70, label %81

70:                                               ; preds = %66
  %71 = load i16, ptr %10, align 2
  %72 = load ptr, ptr %4, align 8
  %73 = getelementptr inbounds nuw %struct.PortalData, ptr %72, i32 0, i32 22
  %74 = load ptr, ptr %73, align 8
  %75 = load i32, ptr %8, align 4
  %76 = sext i32 %75 to i64
  %77 = getelementptr inbounds i16, ptr %74, i64 %76
  store i16 %71, ptr %77, align 2
  br label %78

78:                                               ; preds = %70
  %79 = load i32, ptr %8, align 4
  %80 = add i32 %79, 1
  store i32 %80, ptr %8, align 4
  br label %66, !llvm.loop !8

81:                                               ; preds = %66
  call void @llvm.lifetime.end.p0(i64 2, ptr %10) #10
  br label %98

82:                                               ; preds = %59
  store i32 0, ptr %8, align 4
  br label %83

83:                                               ; preds = %94, %82
  %84 = load i32, ptr %8, align 4
  %85 = load i32, ptr %7, align 4
  %86 = icmp slt i32 %84, %85
  br i1 %86, label %87, label %97

87:                                               ; preds = %83
  %88 = load ptr, ptr %4, align 8
  %89 = getelementptr inbounds nuw %struct.PortalData, ptr %88, i32 0, i32 22
  %90 = load ptr, ptr %89, align 8
  %91 = load i32, ptr %8, align 4
  %92 = sext i32 %91 to i64
  %93 = getelementptr inbounds i16, ptr %90, i64 %92
  store i16 0, ptr %93, align 2
  br label %94

94:                                               ; preds = %87
  %95 = load i32, ptr %8, align 4
  %96 = add i32 %95, 1
  store i32 %96, ptr %8, align 4
  br label %83, !llvm.loop !9

97:                                               ; preds = %83
  br label %98

98:                                               ; preds = %97, %81
  br label %99

99:                                               ; preds = %98, %51
  store i32 0, ptr %9, align 4
  br label %100

100:                                              ; preds = %99, %15
  call void @llvm.lifetime.end.p0(i64 4, ptr %8) #10
  call void @llvm.lifetime.end.p0(i64 4, ptr %7) #10
  %101 = load i32, ptr %9, align 4
  switch i32 %101, label %103 [
    i32 0, label %102
    i32 1, label %102
  ]

102:                                              ; preds = %100, %100
  ret void

103:                                              ; preds = %100
  unreachable
}