; Function Attrs: nounwind uwtable
define dso_local void @PortalSetResultFormat(ptr noundef captures(none) %0, i32 noundef %1, ptr noundef readonly captures(none) %2) local_unnamed_addr #0 {
  %4 = getelementptr inbounds nuw i8, ptr %0, i64 144
  %5 = load ptr, ptr %4, align 8
  %6 = icmp eq ptr %5, null
  br i1 %6, label %.loopexit, label %7

7:                                                ; preds = %3
  %8 = load i32, ptr %5, align 8
  %9 = getelementptr inbounds nuw i8, ptr %0, i64 16
  %10 = load ptr, ptr %9, align 8
  %11 = sext i32 %8 to i64
  %12 = shl nsw i64 %11, 1
  %13 = tail call ptr @MemoryContextAlloc(ptr noundef %10, i64 noundef %12) #11
  %14 = getelementptr inbounds nuw i8, ptr %0, i64 152
  store ptr %13, ptr %14, align 8
  %15 = icmp sgt i32 %1, 1
  br i1 %15, label %16, label %22

16:                                               ; preds = %7
  %.not = icmp eq i32 %1, %8
  br i1 %.not, label %21, label %17

17:                                               ; preds = %16
  %18 = tail call zeroext i1 @errstart_cold(i32 noundef 21, ptr noundef null) #12
  tail call void @llvm.assume(i1 %18)
  %19 = tail call i32 @errcode(i32 noundef 16908800) #11
  %20 = tail call i32 (ptr, ...) @errmsg(ptr noundef nonnull @.str.2, i32 noundef %1, i32 noundef %8) #11
  tail call void @errfinish(ptr noundef nonnull @.str.1, i32 noundef 642, ptr noundef nonnull @__func__.PortalSetResultFormat) #11
  unreachable

21:                                               ; preds = %16
  tail call void @llvm.memcpy.p0.p0.i64(ptr align 2 %13, ptr align 2 %2, i64 %12, i1 false)
  br label %.loopexit

22:                                               ; preds = %7
  %23 = icmp eq i32 %1, 1
  br i1 %23, label %25, label %.preheader

.preheader:                                       ; preds = %22
  %24 = icmp sgt i32 %8, 0
  br i1 %24, label %.lr.ph.preheader, label %.loopexit

.lr.ph.preheader:                                 ; preds = %.preheader
  %wide.trip.count = zext nneg i32 %8 to i64
  br label %.lr.ph

25:                                               ; preds = %22
  %26 = load i16, ptr %2, align 2
  %27 = icmp sgt i32 %8, 0
  br i1 %27, label %.lr.ph31.preheader, label %.loopexit

.lr.ph31.preheader:                               ; preds = %25
  %wide.trip.count37 = zext nneg i32 %8 to i64
  br label %.lr.ph31

.lr.ph31:                                         ; preds = %.lr.ph31.preheader, %.lr.ph31
  %indvars.iv34 = phi i64 [ 0, %.lr.ph31.preheader ], [ %indvars.iv.next35, %.lr.ph31 ]
  %28 = load ptr, ptr %14, align 8
  %29 = getelementptr inbounds nuw i16, ptr %28, i64 %indvars.iv34
  store i16 %26, ptr %29, align 2
  %indvars.iv.next35 = add nuw nsw i64 %indvars.iv34, 1
  %exitcond38.not = icmp eq i64 %indvars.iv.next35, %wide.trip.count37
  br i1 %exitcond38.not, label %.loopexit, label %.lr.ph31, !llvm.loop !6

.lr.ph:                                           ; preds = %.lr.ph.preheader, %.lr.ph
  %indvars.iv = phi i64 [ 0, %.lr.ph.preheader ], [ %indvars.iv.next, %.lr.ph ]
  %30 = load ptr, ptr %14, align 8
  %31 = getelementptr inbounds nuw i16, ptr %30, i64 %indvars.iv
  store i16 0, ptr %31, align 2
  %indvars.iv.next = add nuw nsw i64 %indvars.iv, 1
  %exitcond.not = icmp eq i64 %indvars.iv.next, %wide.trip.count
  br i1 %exitcond.not, label %.loopexit, label %.lr.ph, !llvm.loop !8

.loopexit:                                        ; preds = %.lr.ph, %.lr.ph31, %.preheader, %25, %21, %3
  ret void
}